target datalayout = "e-m:e-p270:32:32-p271:32:32-p272:64:64-i64:64-i128:128-f80:128-n8:16:32:64-S128"
target triple = "x86_64-pc-linux-gnu"

@.str = private unnamed_addr constant [31 x i8] c"../openssl/test/cmp_ctx_test.c\00", align 1
@.str.1 = private unnamed_addr constant [28 x i8] c"Error parsing test options\0A\00", align 1
@.str.2 = private unnamed_addr constant [22 x i8] c"test_CTX_libctx_propq\00", align 1
@.str.3 = private unnamed_addr constant [16 x i8] c"test_CTX_reinit\00", align 1
@.str.4 = private unnamed_addr constant [27 x i8] c"test_CTX_set_get_option_35\00", align 1
@.str.5 = private unnamed_addr constant [24 x i8] c"test_CTX_set_get_log_cb\00", align 1
@.str.6 = private unnamed_addr constant [20 x i8] c"test_cmp_ctx_log_cb\00", align 1
@.str.7 = private unnamed_addr constant [22 x i8] c"test_CTX_print_errors\00", align 1
@.str.8 = private unnamed_addr constant [30 x i8] c"test_CTX_set1_get0_serverPath\00", align 1
@.str.9 = private unnamed_addr constant [26 x i8] c"test_CTX_set1_get0_server\00", align 1
@.str.10 = private unnamed_addr constant [28 x i8] c"test_CTX_set_get_serverPort\00", align 1
@.str.11 = private unnamed_addr constant [25 x i8] c"test_CTX_set1_get0_proxy\00", align 1
@.str.12 = private unnamed_addr constant [28 x i8] c"test_CTX_set1_get0_no_proxy\00", align 1
@.str.13 = private unnamed_addr constant [25 x i8] c"test_CTX_set_get_http_cb\00", align 1
@.str.14 = private unnamed_addr constant [29 x i8] c"test_CTX_set_get_http_cb_arg\00", align 1
@.str.15 = private unnamed_addr constant [29 x i8] c"test_CTX_set_get_transfer_cb\00", align 1
@.str.16 = private unnamed_addr constant [33 x i8] c"test_CTX_set_get_transfer_cb_arg\00", align 1
@.str.17 = private unnamed_addr constant [27 x i8] c"test_CTX_set1_get0_srvCert\00", align 1
@.str.18 = private unnamed_addr constant [36 x i8] c"test_CTX_set1_get0_validatedSrvCert\00", align 1
@.str.19 = private unnamed_addr constant [35 x i8] c"test_CTX_set1_get0_expected_sender\00", align 1
@.str.20 = private unnamed_addr constant [27 x i8] c"test_CTX_set0_get0_trusted\00", align 1
@.str.21 = private unnamed_addr constant [29 x i8] c"test_CTX_set1_get0_untrusted\00", align 1
@.str.22 = private unnamed_addr constant [24 x i8] c"test_CTX_set1_get0_cert\00", align 1
@.str.23 = private unnamed_addr constant [24 x i8] c"test_CTX_set1_get0_pkey\00", align 1
@.str.24 = private unnamed_addr constant [38 x i8] c"test_CTX_set1_get1_referenceValue_str\00", align 1
@.str.25 = private unnamed_addr constant [35 x i8] c"test_CTX_set1_get1_secretValue_str\00", align 1
@.str.26 = private unnamed_addr constant [29 x i8] c"test_CTX_set1_get0_recipient\00", align 1
@.str.27 = private unnamed_addr constant [28 x i8] c"test_CTX_push0_geninfo_ITAV\00", align 1
@.str.28 = private unnamed_addr constant [33 x i8] c"test_CTX_set1_get0_extraCertsOut\00", align 1
@.str.29 = private unnamed_addr constant [29 x i8] c"test_CTX_set0_get0_newPkey_1\00", align 1
@.str.30 = private unnamed_addr constant [29 x i8] c"test_CTX_set0_get0_newPkey_0\00", align 1
@.str.31 = private unnamed_addr constant [26 x i8] c"test_CTX_set1_get0_issuer\00", align 1
@.str.32 = private unnamed_addr constant [31 x i8] c"test_CTX_set1_get0_subjectName\00", align 1
@.str.33 = private unnamed_addr constant [33 x i8] c"test_CTX_set0_get0_reqExtensions\00", align 1
@.str.34 = private unnamed_addr constant [32 x i8] c"test_CTX_reqExtensions_have_SAN\00", align 1
@.str.35 = private unnamed_addr constant [22 x i8] c"test_CTX_push0_policy\00", align 1
@.str.36 = private unnamed_addr constant [27 x i8] c"test_CTX_set1_get0_oldCert\00", align 1
@.str.37 = private unnamed_addr constant [25 x i8] c"test_CTX_push0_genm_ITAV\00", align 1
@.str.38 = private unnamed_addr constant [29 x i8] c"test_CTX_set_get_certConf_cb\00", align 1
@.str.39 = private unnamed_addr constant [33 x i8] c"test_CTX_set_get_certConf_cb_arg\00", align 1
@.str.40 = private unnamed_addr constant [24 x i8] c"test_CTX_set_get_status\00", align 1
@.str.41 = private unnamed_addr constant [32 x i8] c"test_CTX_set0_get0_statusString\00", align 1
@.str.42 = private unnamed_addr constant [30 x i8] c"test_CTX_set_get_failInfoCode\00", align 1
@.str.43 = private unnamed_addr constant [27 x i8] c"test_CTX_set0_get0_newCert\00", align 1
@.str.44 = private unnamed_addr constant [28 x i8] c"test_CTX_set1_get1_newChain\00", align 1
@.str.45 = private unnamed_addr constant [26 x i8] c"test_CTX_set1_get1_caPubs\00", align 1
@.str.46 = private unnamed_addr constant [32 x i8] c"test_CTX_set1_get1_extraCertsIn\00", align 1
@.str.47 = private unnamed_addr constant [33 x i8] c"test_CTX_set1_get0_transactionID\00", align 1
@.str.48 = private unnamed_addr constant [31 x i8] c"test_CTX_set1_get0_senderNonce\00", align 1
@.str.49 = private unnamed_addr constant [30 x i8] c"test_CTX_set1_get0_recipNonce\00", align 1

; Function Attrs: nounwind uwtable
define dso_local i32 @setup_tests() #0 {
  %1 = alloca i32, align 4
  %2 = call i32 @test_skip_common_options()
  %3 = icmp ne i32 %2, 0
  br i1 %3, label %5, label %4

4:                                                ; preds = %0
  call void (ptr, i32, ptr, ...) @test_error(ptr noundef @.str, i32 noundef 817, ptr noundef @.str.1)
  store i32 0, ptr %1, align 4
  br label %6

5:                                                ; preds = %0
  call void @add_test(ptr noundef @.str.2, ptr noundef @test_CTX_libctx_propq)
  call void @add_test(ptr noundef @.str.3, ptr noundef @test_CTX_reinit)
  call void @add_test(ptr noundef @.str.4, ptr noundef @test_CTX_set_get_option_35)
  call void @add_test(ptr noundef @.str.5, ptr noundef @test_CTX_set_get_log_cb)
  call void @add_test(ptr noundef @.str.6, ptr noundef @test_cmp_ctx_log_cb)
  call void @add_test(ptr noundef @.str.7, ptr noundef @test_CTX_print_errors)
  call void @add_test(ptr noundef @.str.8, ptr noundef @test_CTX_set1_get0_serverPath)
  call void @add_test(ptr noundef @.str.9, ptr noundef @test_CTX_set1_get0_server)
  call void @add_test(ptr noundef @.str.10, ptr noundef @test_CTX_set_get_serverPort)
  call void @add_test(ptr noundef @.str.11, ptr noundef @test_CTX_set1_get0_proxy)
  call void @add_test(ptr noundef @.str.12, ptr noundef @test_CTX_set1_get0_no_proxy)
  call void @add_test(ptr noundef @.str.13, ptr noundef @test_CTX_set_get_http_cb)
  call void @add_test(ptr noundef @.str.14, ptr noundef @test_CTX_set_get_http_cb_arg)
  call void @add_test(ptr noundef @.str.15, ptr noundef @test_CTX_set_get_transfer_cb)
  call void @add_test(ptr noundef @.str.16, ptr noundef @test_CTX_set_get_transfer_cb_arg)
  call void @add_test(ptr noundef @.str.17, ptr noundef @test_CTX_set1_get0_srvCert)
  call void @add_test(ptr noundef @.str.18, ptr noundef @test_CTX_set1_get0_validatedSrvCert)
  call void @add_test(ptr noundef @.str.19, ptr noundef @test_CTX_set1_get0_expected_sender)
  call void @add_test(ptr noundef @.str.20, ptr noundef @test_CTX_set0_get0_trusted)
  call void @add_test(ptr noundef @.str.21, ptr noundef @test_CTX_set1_get0_untrusted)
  call void @add_test(ptr noundef @.str.22, ptr noundef @test_CTX_set1_get0_cert)
  call void @add_test(ptr noundef @.str.23, ptr noundef @test_CTX_set1_get0_pkey)
  call void @add_test(ptr noundef @.str.24, ptr noundef @test_CTX_set1_get1_referenceValue_str)
  call void @add_test(ptr noundef @.str.25, ptr noundef @test_CTX_set1_get1_secretValue_str)
  call void @add_test(ptr noundef @.str.26, ptr noundef @test_CTX_set1_get0_recipient)
  call void @add_test(ptr noundef @.str.27, ptr noundef @test_CTX_push0_geninfo_ITAV)
  call void @add_test(ptr noundef @.str.28, ptr noundef @test_CTX_set1_get0_extraCertsOut)
  call void @add_test(ptr noundef @.str.29, ptr noundef @test_CTX_set0_get0_newPkey_1)
  call void @add_test(ptr noundef @.str.30, ptr noundef @test_CTX_set0_get0_newPkey_0)
  call void @add_test(ptr noundef @.str.31, ptr noundef @test_CTX_set1_get0_issuer)
  call void @add_test(ptr noundef @.str.32, ptr noundef @test_CTX_set1_get0_subjectName)
  call void @add_test(ptr noundef @.str.33, ptr noundef @test_CTX_set0_get0_reqExtensions)
  call void @add_test(ptr noundef @.str.34, ptr noundef @test_CTX_reqExtensions_have_SAN)
  call void @add_test(ptr noundef @.str.35, ptr noundef @test_CTX_push0_policy)
  call void @add_test(ptr noundef @.str.36, ptr noundef @test_CTX_set1_get0_oldCert)
  call void @add_test(ptr noundef @.str.37, ptr noundef @test_CTX_push0_genm_ITAV)
  call void @add_test(ptr noundef @.str.38, ptr noundef @test_CTX_set_get_certConf_cb)
  call void @add_test(ptr noundef @.str.39, ptr noundef @test_CTX_set_get_certConf_cb_arg)
  call void @add_test(ptr noundef @.str.40, ptr noundef @test_CTX_set_get_status)
  call void @add_test(ptr noundef @.str.41, ptr noundef @test_CTX_set0_get0_statusString)
  call void @add_test(ptr noundef @.str.42, ptr noundef @test_CTX_set_get_failInfoCode)
  call void @add_test(ptr noundef @.str.43, ptr noundef @test_CTX_set0_get0_newCert)
  call void @add_test(ptr noundef @.str.44, ptr noundef @test_CTX_set1_get1_newChain)
  call void @add_test(ptr noundef @.str.45, ptr noundef @test_CTX_set1_get1_caPubs)
  call void @add_test(ptr noundef @.str.46, ptr noundef @test_CTX_set1_get1_extraCertsIn)
  call void @add_test(ptr noundef @.str.47, ptr noundef @test_CTX_set1_get0_transactionID)
  call void @add_test(ptr noundef @.str.48, ptr noundef @test_CTX_set1_get0_senderNonce)
  call void @add_test(ptr noundef @.str.49, ptr noundef @test_CTX_set1_get0_recipNonce)
  store i32 1, ptr %1, align 4
  br label %6

6:                                                ; preds = %5, %4
  %7 = load i32, ptr %1, align 4
  ret i32 %7
}