; Function Attrs: nounwind uwtable
define dso_local range(i32 0, 2) i32 @setup_tests() local_unnamed_addr #1 {
  %1 = tail call i32 @test_skip_common_options() #6
  %.not = icmp eq i32 %1, 0
  br i1 %.not, label %2, label %3

2:                                                ; preds = %0
  tail call void (ptr, i32, ptr, ...) @test_error(ptr noundef nonnull @.str, i32 noundef 817, ptr noundef nonnull @.str.1) #6
  br label %4

3:                                                ; preds = %0
  tail call void @add_test(ptr noundef nonnull @.str.2, ptr noundef nonnull @test_CTX_libctx_propq) #6
  tail call void @add_test(ptr noundef nonnull @.str.3, ptr noundef nonnull @test_CTX_reinit) #6
  tail call void @add_test(ptr noundef nonnull @.str.4, ptr noundef nonnull @test_CTX_set_get_option_35) #6
  tail call void @add_test(ptr noundef nonnull @.str.5, ptr noundef nonnull @test_CTX_set_get_log_cb) #6
  tail call void @add_test(ptr noundef nonnull @.str.6, ptr noundef nonnull @test_cmp_ctx_log_cb) #6
  tail call void @add_test(ptr noundef nonnull @.str.7, ptr noundef nonnull @test_CTX_print_errors) #6
  tail call void @add_test(ptr noundef nonnull @.str.8, ptr noundef nonnull @test_CTX_set1_get0_serverPath) #6
  tail call void @add_test(ptr noundef nonnull @.str.9, ptr noundef nonnull @test_CTX_set1_get0_server) #6
  tail call void @add_test(ptr noundef nonnull @.str.10, ptr noundef nonnull @test_CTX_set_get_serverPort) #6
  tail call void @add_test(ptr noundef nonnull @.str.11, ptr noundef nonnull @test_CTX_set1_get0_proxy) #6
  tail call void @add_test(ptr noundef nonnull @.str.12, ptr noundef nonnull @test_CTX_set1_get0_no_proxy) #6
  tail call void @add_test(ptr noundef nonnull @.str.13, ptr noundef nonnull @test_CTX_set_get_http_cb) #6
  tail call void @add_test(ptr noundef nonnull @.str.14, ptr noundef nonnull @test_CTX_set_get_http_cb_arg) #6
  tail call void @add_test(ptr noundef nonnull @.str.15, ptr noundef nonnull @test_CTX_set_get_transfer_cb) #6
  tail call void @add_test(ptr noundef nonnull @.str.16, ptr noundef nonnull @test_CTX_set_get_transfer_cb_arg) #6
  tail call void @add_test(ptr noundef nonnull @.str.17, ptr noundef nonnull @test_CTX_set1_get0_srvCert) #6
  tail call void @add_test(ptr noundef nonnull @.str.18, ptr noundef nonnull @test_CTX_set1_get0_validatedSrvCert) #6
  tail call void @add_test(ptr noundef nonnull @.str.19, ptr noundef nonnull @test_CTX_set1_get0_expected_sender) #6
  tail call void @add_test(ptr noundef nonnull @.str.20, ptr noundef nonnull @test_CTX_set0_get0_trusted) #6
  tail call void @add_test(ptr noundef nonnull @.str.21, ptr noundef nonnull @test_CTX_set1_get0_untrusted) #6
  tail call void @add_test(ptr noundef nonnull @.str.22, ptr noundef nonnull @test_CTX_set1_get0_cert) #6
  tail call void @add_test(ptr noundef nonnull @.str.23, ptr noundef nonnull @test_CTX_set1_get0_pkey) #6
  tail call void @add_test(ptr noundef nonnull @.str.24, ptr noundef nonnull @test_CTX_set1_get1_referenceValue_str) #6
  tail call void @add_test(ptr noundef nonnull @.str.25, ptr noundef nonnull @test_CTX_set1_get1_secretValue_str) #6
  tail call void @add_test(ptr noundef nonnull @.str.26, ptr noundef nonnull @test_CTX_set1_get0_recipient) #6
  tail call void @add_test(ptr noundef nonnull @.str.27, ptr noundef nonnull @test_CTX_push0_geninfo_ITAV) #6
  tail call void @add_test(ptr noundef nonnull @.str.28, ptr noundef nonnull @test_CTX_set1_get0_extraCertsOut) #6
  tail call void @add_test(ptr noundef nonnull @.str.29, ptr noundef nonnull @test_CTX_set0_get0_newPkey_1) #6
  tail call void @add_test(ptr noundef nonnull @.str.30, ptr noundef nonnull @test_CTX_set0_get0_newPkey_0) #6
  tail call void @add_test(ptr noundef nonnull @.str.31, ptr noundef nonnull @test_CTX_set1_get0_issuer) #6
  tail call void @add_test(ptr noundef nonnull @.str.32, ptr noundef nonnull @test_CTX_set1_get0_subjectName) #6
  tail call void @add_test(ptr noundef nonnull @.str.33, ptr noundef nonnull @test_CTX_set0_get0_reqExtensions) #6
  tail call void @add_test(ptr noundef nonnull @.str.34, ptr noundef nonnull @test_CTX_reqExtensions_have_SAN) #6
  tail call void @add_test(ptr noundef nonnull @.str.35, ptr noundef nonnull @test_CTX_push0_policy) #6
  tail call void @add_test(ptr noundef nonnull @.str.36, ptr noundef nonnull @test_CTX_set1_get0_oldCert) #6
  tail call void @add_test(ptr noundef nonnull @.str.37, ptr noundef nonnull @test_CTX_push0_genm_ITAV) #6
  tail call void @add_test(ptr noundef nonnull @.str.38, ptr noundef nonnull @test_CTX_set_get_certConf_cb) #6
  tail call void @add_test(ptr noundef nonnull @.str.39, ptr noundef nonnull @test_CTX_set_get_certConf_cb_arg) #6
  tail call void @add_test(ptr noundef nonnull @.str.40, ptr noundef nonnull @test_CTX_set_get_status) #6
  tail call void @add_test(ptr noundef nonnull @.str.41, ptr noundef nonnull @test_CTX_set0_get0_statusString) #6
  tail call void @add_test(ptr noundef nonnull @.str.42, ptr noundef nonnull @test_CTX_set_get_failInfoCode) #6
  tail call void @add_test(ptr noundef nonnull @.str.43, ptr noundef nonnull @test_CTX_set0_get0_newCert) #6
  tail call void @add_test(ptr noundef nonnull @.str.44, ptr noundef nonnull @test_CTX_set1_get1_newChain) #6
  tail call void @add_test(ptr noundef nonnull @.str.45, ptr noundef nonnull @test_CTX_set1_get1_caPubs) #6
  tail call void @add_test(ptr noundef nonnull @.str.46, ptr noundef nonnull @test_CTX_set1_get1_extraCertsIn) #6
  tail call void @add_test(ptr noundef nonnull @.str.47, ptr noundef nonnull @test_CTX_set1_get0_transactionID) #6
  tail call void @add_test(ptr noundef nonnull @.str.48, ptr noundef nonnull @test_CTX_set1_get0_senderNonce) #6
  tail call void @add_test(ptr noundef nonnull @.str.49, ptr noundef nonnull @test_CTX_set1_get0_recipNonce) #6
  br label %4

4:                                                ; preds = %3, %2
  %.0 = phi i32 [ 1, %3 ], [ 0, %2 ]
  ret i32 %.0
}